; Function Attrs: mustprogress uwtable
define dso_local noundef zeroext i1 @_ZN4Luau9isPendingEPKNS_4TypeEPNS_16ConstraintSolverE(ptr noundef %0, ptr noundef %1) local_unnamed_addr #4 {
  %.not.i = icmp eq ptr %0, null
  br i1 %.not.i, label %_ZN4Luau3getINS_24TypeFunctionInstanceTypeEEEPKT_PKNS_4TypeE.exit.i, label %_ZN4Luau3getINS_11BlockedTypeEEEPKT_PKNS_4TypeE.exit.i

_ZN4Luau3getINS_11BlockedTypeEEEPKT_PKNS_4TypeE.exit.i: ; preds = %2
  %3 = load i32, ptr %0, align 8, !tbaa !62
  switch i32 %3, label %_ZN4Luau3getINS_24TypeFunctionInstanceTypeEEEPKT_PKNS_4TypeE.exit.i [
    i32 6, label %_ZN4Luau2isIJNS_11BlockedTypeENS_20PendingExpansionTypeENS_24TypeFunctionInstanceTypeEERPKNS_4TypeEEEbOT0_.exit
    i32 7, label %_ZN4Luau2isIJNS_11BlockedTypeENS_20PendingExpansionTypeENS_24TypeFunctionInstanceTypeEERPKNS_4TypeEEEbOT0_.exit
    i32 20, label %_ZN4Luau2isIJNS_11BlockedTypeENS_20PendingExpansionTypeENS_24TypeFunctionInstanceTypeEERPKNS_4TypeEEEbOT0_.exit
  ]

_ZN4Luau3getINS_24TypeFunctionInstanceTypeEEEPKT_PKNS_4TypeE.exit.i: ; preds = %_ZN4Luau3getINS_11BlockedTypeEEEPKT_PKNS_4TypeE.exit.i, %2
  %.not = icmp eq ptr %1, null
  br i1 %.not, label %_ZN4Luau2isIJNS_11BlockedTypeENS_20PendingExpansionTypeENS_24TypeFunctionInstanceTypeEERPKNS_4TypeEEEbOT0_.exit, label %4

4:                                                ; preds = %_ZN4Luau3getINS_24TypeFunctionInstanceTypeEEEPKT_PKNS_4TypeE.exit.i
  %5 = tail call noundef zeroext i1 @_ZN4Luau16ConstraintSolver24hasUnresolvedConstraintsEPKNS_4TypeE(ptr noundef nonnull align 8 dereferenceable(1032) %1, ptr noundef %0)
  br label %_ZN4Luau2isIJNS_11BlockedTypeENS_20PendingExpansionTypeENS_24TypeFunctionInstanceTypeEERPKNS_4TypeEEEbOT0_.exit

_ZN4Luau2isIJNS_11BlockedTypeENS_20PendingExpansionTypeENS_24TypeFunctionInstanceTypeEERPKNS_4TypeEEEbOT0_.exit: ; preds = %_ZN4Luau3getINS_11BlockedTypeEEEPKT_PKNS_4TypeE.exit.i, %_ZN4Luau3getINS_11BlockedTypeEEEPKT_PKNS_4TypeE.exit.i, %_ZN4Luau3getINS_11BlockedTypeEEEPKT_PKNS_4TypeE.exit.i, %_ZN4Luau3getINS_24TypeFunctionInstanceTypeEEEPKT_PKNS_4TypeE.exit.i, %4
  %6 = phi i1 [ false, %_ZN4Luau3getINS_24TypeFunctionInstanceTypeEEEPKT_PKNS_4TypeE.exit.i ], [ %5, %4 ], [ true, %_ZN4Luau3getINS_11BlockedTypeEEEPKT_PKNS_4TypeE.exit.i ], [ true, %_ZN4Luau3getINS_11BlockedTypeEEEPKT_PKNS_4TypeE.exit.i ], [ true, %_ZN4Luau3getINS_11BlockedTypeEEEPKT_PKNS_4TypeE.exit.i ]
  ret i1 %6
}